target datalayout = "e-m:e-p270:32:32-p271:32:32-p272:64:64-i64:64-i128:128-f80:128-n8:16:32:64-S128"
target triple = "x86_64-pc-linux-gnu"

%struct.RBasic = type { i64, i64 }
%struct.ar_table_struct = type { %union.anon.15, [8 x %struct.ar_table_pair_struct] }
%union.anon.15 = type { i64 }
%struct.ar_table_pair_struct = type { i64, i64 }
%struct.equal_data = type { i64, i64, i32 }

; Function Attrs: inlinehint nounwind sspstrong uwtable
define internal i32 @RHASH_AR_TABLE_BOUND(i64 noundef %0) #2 {
  %2 = alloca i64, align 8
  %3 = alloca i32, align 4
  store i64 %0, ptr %2, align 8, !tbaa !7
  call void @llvm.lifetime.start.p0(i64 4, ptr %3) #28
  %4 = load i64, ptr %2, align 8, !tbaa !7
  %5 = inttoptr i64 %4 to ptr
  %6 = getelementptr inbounds nuw %struct.RBasic, ptr %5, i32 0, i32 0
  %7 = load i64, ptr %6, align 8, !tbaa !64
  %8 = lshr i64 %7, 20
  %9 = and i64 %8, 15
  %10 = trunc i64 %9 to i32
  store i32 %10, ptr %3, align 4, !tbaa !16
  %11 = load i32, ptr %3, align 4, !tbaa !16
  call void @llvm.lifetime.end.p0(i64 4, ptr %3) #28
  ret i32 %11
}

; Function Attrs: nounwind sspstrong uwtable
define internal i32 @ar_find_entry_hint(i64 noundef %0, i8 noundef zeroext %1, i64 noundef %2) #0 {
  %4 = alloca i32, align 4
  %5 = alloca i64, align 8
  %6 = alloca i8, align 1
  %7 = alloca i64, align 8
  %8 = alloca i32, align 4
  %9 = alloca i32, align 4
  %10 = alloca ptr, align 8
  %11 = alloca ptr, align 8
  %12 = alloca i32, align 4
  store i64 %0, ptr %5, align 8, !tbaa !7
  store i8 %1, ptr %6, align 1, !tbaa !22
  store i64 %2, ptr %7, align 8, !tbaa !7
  call void @llvm.lifetime.start.p0(i64 4, ptr %8) #28
  call void @llvm.lifetime.start.p0(i64 4, ptr %9) #28
  %13 = load i64, ptr %5, align 8, !tbaa !7
  %14 = call i32 @RHASH_AR_TABLE_BOUND(i64 noundef %13)
  store i32 %14, ptr %9, align 4, !tbaa !16
  call void @llvm.lifetime.start.p0(i64 8, ptr %10) #28
  %15 = load i64, ptr %5, align 8, !tbaa !7
  %16 = call nonnull ptr @RHASH_AR_TABLE(i64 noundef %15)
  %17 = getelementptr inbounds nuw %struct.ar_table_struct, ptr %16, i32 0, i32 0
  %18 = getelementptr inbounds [8 x i8], ptr %17, i64 0, i64 0
  store ptr %18, ptr %10, align 8, !tbaa !14
  store i32 0, ptr %8, align 4, !tbaa !16
  br label %19

19:                                               ; preds = %54, %3
  %20 = load i32, ptr %8, align 4, !tbaa !16
  %21 = load i32, ptr %9, align 4, !tbaa !16
  %22 = icmp ult i32 %20, %21
  br i1 %22, label %23, label %57

23:                                               ; preds = %19
  %24 = load ptr, ptr %10, align 8, !tbaa !14
  %25 = load i32, ptr %8, align 4, !tbaa !16
  %26 = zext i32 %25 to i64
  %27 = getelementptr i8, ptr %24, i64 %26
  %28 = load i8, ptr %27, align 1, !tbaa !22
  %29 = zext i8 %28 to i32
  %30 = load i8, ptr %6, align 1, !tbaa !22
  %31 = zext i8 %30 to i32
  %32 = icmp eq i32 %29, %31
  br i1 %32, label %33, label %53

33:                                               ; preds = %23
  call void @llvm.lifetime.start.p0(i64 8, ptr %11) #28
  %34 = load i64, ptr %5, align 8, !tbaa !7
  %35 = call nonnull ptr @RHASH_AR_TABLE(i64 noundef %34)
  %36 = getelementptr inbounds nuw %struct.ar_table_struct, ptr %35, i32 0, i32 1
  %37 = load i32, ptr %8, align 4, !tbaa !16
  %38 = zext i32 %37 to i64
  %39 = getelementptr [8 x %struct.ar_table_pair_struct], ptr %36, i64 0, i64 %38
  store ptr %39, ptr %11, align 8, !tbaa !68
  %40 = load i64, ptr %7, align 8, !tbaa !7
  %41 = load ptr, ptr %11, align 8, !tbaa !68
  %42 = getelementptr inbounds nuw %struct.ar_table_pair_struct, ptr %41, i32 0, i32 0
  %43 = load i64, ptr %42, align 8, !tbaa !70
  %44 = call i32 @ar_equal(i64 noundef %40, i64 noundef %43)
  %45 = icmp ne i32 %44, 0
  br i1 %45, label %46, label %48

46:                                               ; preds = %33
  %47 = load i32, ptr %8, align 4, !tbaa !16
  store i32 %47, ptr %4, align 4
  store i32 1, ptr %12, align 4
  br label %50

48:                                               ; preds = %33
  br label %49

49:                                               ; preds = %48
  store i32 0, ptr %12, align 4
  br label %50

50:                                               ; preds = %49, %46
  call void @llvm.lifetime.end.p0(i64 8, ptr %11) #28
  %51 = load i32, ptr %12, align 4
  switch i32 %51, label %58 [
    i32 0, label %52
  ]

52:                                               ; preds = %50
  br label %53

53:                                               ; preds = %52, %23
  br label %54

54:                                               ; preds = %53
  %55 = load i32, ptr %8, align 4, !tbaa !16
  %56 = add i32 %55, 1
  store i32 %56, ptr %8, align 4, !tbaa !16
  br label %19, !llvm.loop !163

57:                                               ; preds = %19
  store i32 8, ptr %4, align 4
  store i32 1, ptr %12, align 4
  br label %58

58:                                               ; preds = %57, %50
  call void @llvm.lifetime.end.p0(i64 8, ptr %10) #28
  call void @llvm.lifetime.end.p0(i64 4, ptr %9) #28
  call void @llvm.lifetime.end.p0(i64 4, ptr %8) #28
  %59 = load i32, ptr %4, align 4
  ret i32 %59
}

; Function Attrs: inlinehint nounwind sspstrong uwtable
define internal zeroext i8 @ar_do_hash_hint(i64 noundef %0) #2 {
  %2 = alloca i64, align 8
  store i64 %0, ptr %2, align 8, !tbaa !7
  %3 = load i64, ptr %2, align 8, !tbaa !7
  %4 = trunc i64 %3 to i8
  ret i8 %4
}

; Function Attrs: nounwind sspstrong uwtable
define hidden i64 @rb_any_hash(i64 noundef %0) #0 {
  %2 = alloca i64, align 8
  store i64 %0, ptr %2, align 8, !tbaa !7
  %3 = load i64, ptr %2, align 8, !tbaa !7
  %4 = call i64 @any_hash(i64 noundef %3, ptr noundef @obj_any_hash)
  ret i64 %4
}

; Function Attrs: inlinehint nounwind sspstrong uwtable
define internal nonnull ptr @RHASH_AR_TABLE(i64 noundef %0) #2 {
  %2 = alloca i64, align 8
  store i64 %0, ptr %2, align 8, !tbaa !7
  %3 = load i64, ptr %2, align 8, !tbaa !7
  %4 = add i64 %3, 24
  %5 = inttoptr i64 %4 to ptr
  ret ptr %5
}

; Function Attrs: nounwind sspstrong uwtable
define internal i32 @ar_find_entry(i64 noundef %0, i64 noundef %1, i64 noundef %2) #0 {
  %4 = alloca i64, align 8
  %5 = alloca i64, align 8
  %6 = alloca i64, align 8
  %7 = alloca i8, align 1
  store i64 %0, ptr %4, align 8, !tbaa !7
  store i64 %1, ptr %5, align 8, !tbaa !7
  store i64 %2, ptr %6, align 8, !tbaa !7
  call void @llvm.lifetime.start.p0(i64 1, ptr %7) #28
  %8 = load i64, ptr %5, align 8, !tbaa !7
  %9 = call zeroext i8 @ar_do_hash_hint(i64 noundef %8)
  store i8 %9, ptr %7, align 1, !tbaa !22
  %10 = load i64, ptr %4, align 8, !tbaa !7
  %11 = load i8, ptr %7, align 1, !tbaa !22
  %12 = load i64, ptr %6, align 8, !tbaa !7
  %13 = call i32 @ar_find_entry_hint(i64 noundef %10, i8 noundef zeroext %11, i64 noundef %12)
  call void @llvm.lifetime.end.p0(i64 1, ptr %7) #28
  ret i32 %13
}

; Function Attrs: inlinehint nounwind sspstrong uwtable
define internal i64 @ar_do_hash(i64 noundef %0) #2 {
  %2 = alloca i64, align 8
  store i64 %0, ptr %2, align 8, !tbaa !7
  %3 = load i64, ptr %2, align 8, !tbaa !7
  %4 = call i64 @rb_any_hash(i64 noundef %3)
  ret i64 %4
}

; Function Attrs: inlinehint nounwind sspstrong uwtable
define internal i32 @RHASH_AR_TABLE_SIZE_RAW(i64 noundef %0) #2 {
  %2 = alloca i64, align 8
  %3 = alloca i64, align 8
  store i64 %0, ptr %2, align 8, !tbaa !7
  call void @llvm.lifetime.start.p0(i64 8, ptr %3) #28
  %4 = load i64, ptr %2, align 8, !tbaa !7
  %5 = call i64 @RB_FL_TEST_RAW(i64 noundef %4, i64 noundef 983040) #26
  store i64 %5, ptr %3, align 8, !tbaa !7
  %6 = load i64, ptr %3, align 8, !tbaa !7
  %7 = lshr i64 %6, 16
  store i64 %7, ptr %3, align 8, !tbaa !7
  %8 = load i64, ptr %3, align 8, !tbaa !7
  %9 = trunc i64 %8 to i32
  call void @llvm.lifetime.end.p0(i64 8, ptr %3) #28
  ret i32 %9
}

; Function Attrs: inlinehint nounwind sspstrong willreturn memory(read) uwtable
define internal i64 @RB_FL_TEST_RAW(i64 noundef %0, i64 noundef %1) #4 {
  %3 = alloca i64, align 8
  %4 = alloca i64, align 8
  store i64 %0, ptr %3, align 8, !tbaa !7
  store i64 %1, ptr %4, align 8, !tbaa !7
  %5 = load i64, ptr %3, align 8, !tbaa !7
  %6 = inttoptr i64 %5 to ptr
  %7 = getelementptr inbounds nuw %struct.RBasic, ptr %6, i32 0, i32 0
  %8 = load i64, ptr %7, align 8, !tbaa !64
  %9 = load i64, ptr %4, align 8, !tbaa !7
  %10 = and i64 %8, %9
  ret i64 %10
}

; Function Attrs: inlinehint nounwind sspstrong uwtable
define internal nonnull ptr @RHASH_ST_TABLE(i64 noundef %0) #2 {
  %2 = alloca i64, align 8
  store i64 %0, ptr %2, align 8, !tbaa !7
  %3 = load i64, ptr %2, align 8, !tbaa !7
  %4 = add i64 %3, 24
  %5 = inttoptr i64 %4 to ptr
  ret ptr %5
}

; Function Attrs: nounwind sspstrong uwtable
define internal i32 @ar_lookup(i64 noundef %0, i64 noundef %1, ptr noundef %2) #0 {
  %4 = alloca i32, align 4
  %5 = alloca i64, align 8
  %6 = alloca i64, align 8
  %7 = alloca ptr, align 8
  %8 = alloca i64, align 8
  %9 = alloca i32, align 4
  %10 = alloca i32, align 4
  store i64 %0, ptr %5, align 8, !tbaa !7
  store i64 %1, ptr %6, align 8, !tbaa !7
  store ptr %2, ptr %7, align 8, !tbaa !11
  %11 = load i64, ptr %5, align 8, !tbaa !7
  %12 = call i32 @RHASH_AR_TABLE_SIZE_RAW(i64 noundef %11)
  %13 = icmp eq i32 %12, 0
  br i1 %13, label %14, label %15

14:                                               ; preds = %3
  store i32 0, ptr %4, align 4
  br label %57

15:                                               ; preds = %3
  call void @llvm.lifetime.start.p0(i64 8, ptr %8) #28
  %16 = load i64, ptr %6, align 8, !tbaa !7
  %17 = call i64 @ar_do_hash(i64 noundef %16)
  store i64 %17, ptr %8, align 8, !tbaa !7
  %18 = load i64, ptr %5, align 8, !tbaa !7
  %19 = call zeroext i1 @RHASH_AR_TABLE_P(i64 noundef %18)
  %20 = xor i1 %19, true
  %21 = xor i1 %20, true
  %22 = xor i1 %21, true
  %23 = zext i1 %22 to i32
  %24 = sext i32 %23 to i64
  %25 = call i64 @llvm.expect.i64(i64 %24, i64 0)
  %26 = icmp ne i64 %25, 0
  br i1 %26, label %27, label %33

27:                                               ; preds = %15
  %28 = load i64, ptr %5, align 8, !tbaa !7
  %29 = call nonnull ptr @RHASH_ST_TABLE(i64 noundef %28)
  %30 = load i64, ptr %6, align 8, !tbaa !7
  %31 = load ptr, ptr %7, align 8, !tbaa !11
  %32 = call i32 @rb_st_lookup(ptr noundef %29, i64 noundef %30, ptr noundef %31)
  store i32 %32, ptr %4, align 4
  store i32 1, ptr %9, align 4
  br label %56

33:                                               ; preds = %15
  call void @llvm.lifetime.start.p0(i64 4, ptr %10) #28
  %34 = load i64, ptr %5, align 8, !tbaa !7
  %35 = load i64, ptr %8, align 8, !tbaa !7
  %36 = load i64, ptr %6, align 8, !tbaa !7
  %37 = call i32 @ar_find_entry(i64 noundef %34, i64 noundef %35, i64 noundef %36)
  store i32 %37, ptr %10, align 4, !tbaa !16
  %38 = load i32, ptr %10, align 4, !tbaa !16
  %39 = icmp eq i32 %38, 8
  br i1 %39, label %40, label %41

40:                                               ; preds = %33
  store i32 0, ptr %4, align 4
  store i32 1, ptr %9, align 4
  br label %55

41:                                               ; preds = %33
  %42 = load ptr, ptr %7, align 8, !tbaa !11
  %43 = icmp ne ptr %42, null
  br i1 %43, label %44, label %54

44:                                               ; preds = %41
  %45 = load i64, ptr %5, align 8, !tbaa !7
  %46 = call nonnull ptr @RHASH_AR_TABLE(i64 noundef %45)
  %47 = getelementptr inbounds nuw %struct.ar_table_struct, ptr %46, i32 0, i32 1
  %48 = load i32, ptr %10, align 4, !tbaa !16
  %49 = zext i32 %48 to i64
  %50 = getelementptr [8 x %struct.ar_table_pair_struct], ptr %47, i64 0, i64 %49
  %51 = getelementptr inbounds nuw %struct.ar_table_pair_struct, ptr %50, i32 0, i32 1
  %52 = load i64, ptr %51, align 8, !tbaa !72
  %53 = load ptr, ptr %7, align 8, !tbaa !11
  store i64 %52, ptr %53, align 8, !tbaa !7
  br label %54

54:                                               ; preds = %44, %41
  store i32 1, ptr %4, align 4
  store i32 1, ptr %9, align 4
  br label %55

55:                                               ; preds = %54, %40
  call void @llvm.lifetime.end.p0(i64 4, ptr %10) #28
  br label %56

56:                                               ; preds = %55, %27
  call void @llvm.lifetime.end.p0(i64 8, ptr %8) #28
  br label %57

57:                                               ; preds = %56, %14
  %58 = load i32, ptr %4, align 4
  ret i32 %58
}

; Function Attrs: inlinehint nounwind sspstrong uwtable
define internal zeroext i1 @RHASH_AR_TABLE_P(i64 noundef %0) #2 {
  %2 = alloca i64, align 8
  store i64 %0, ptr %2, align 8, !tbaa !7
  %3 = load i64, ptr %2, align 8, !tbaa !7
  %4 = call i64 @RB_FL_TEST_RAW(i64 noundef %3, i64 noundef 32768) #26
  %5 = icmp ne i64 %4, 0
  %6 = xor i1 %5, true
  ret i1 %6
}

; Function Attrs: inlinehint nounwind sspstrong uwtable
define internal i32 @hash_stlike_lookup(i64 noundef %0, i64 noundef %1, ptr noundef %2) #2 {
  %4 = alloca i32, align 4
  %5 = alloca i64, align 8
  %6 = alloca i64, align 8
  %7 = alloca ptr, align 8
  store i64 %0, ptr %5, align 8, !tbaa !7
  store i64 %1, ptr %6, align 8, !tbaa !7
  store ptr %2, ptr %7, align 8, !tbaa !11
  %8 = load i64, ptr %5, align 8, !tbaa !7
  %9 = call zeroext i1 @RHASH_AR_TABLE_P(i64 noundef %8)
  br i1 %9, label %10, label %15

10:                                               ; preds = %3
  %11 = load i64, ptr %5, align 8, !tbaa !7
  %12 = load i64, ptr %6, align 8, !tbaa !7
  %13 = load ptr, ptr %7, align 8, !tbaa !11
  %14 = call i32 @ar_lookup(i64 noundef %11, i64 noundef %12, ptr noundef %13)
  store i32 %14, ptr %4, align 4
  br label %21

15:                                               ; preds = %3
  %16 = load i64, ptr %5, align 8, !tbaa !7
  %17 = call nonnull ptr @RHASH_ST_TABLE(i64 noundef %16)
  %18 = load i64, ptr %6, align 8, !tbaa !7
  %19 = load ptr, ptr %7, align 8, !tbaa !11
  %20 = call i32 @rb_st_lookup(ptr noundef %17, i64 noundef %18, ptr noundef %19)
  store i32 %20, ptr %4, align 4
  br label %21

21:                                               ; preds = %15, %10
  %22 = load i32, ptr %4, align 4
  ret i32 %22
}

; Function Attrs: nounwind sspstrong uwtable
define internal i32 @eql_i(i64 noundef %0, i64 noundef %1, i64 noundef %2) #0 {
  %4 = alloca i32, align 4
  %5 = alloca i64, align 8
  %6 = alloca i64, align 8
  %7 = alloca i64, align 8
  %8 = alloca ptr, align 8
  %9 = alloca i64, align 8
  %10 = alloca i32, align 4
  store i64 %0, ptr %5, align 8, !tbaa !7
  store i64 %1, ptr %6, align 8, !tbaa !7
  store i64 %2, ptr %7, align 8, !tbaa !7
  call void @llvm.lifetime.start.p0(i64 8, ptr %8) #28
  %11 = load i64, ptr %7, align 8, !tbaa !7
  %12 = inttoptr i64 %11 to ptr
  store ptr %12, ptr %8, align 8, !tbaa !179
  call void @llvm.lifetime.start.p0(i64 8, ptr %9) #28
  %13 = load ptr, ptr %8, align 8, !tbaa !179
  %14 = getelementptr inbounds nuw %struct.equal_data, ptr %13, i32 0, i32 1
  %15 = load i64, ptr %14, align 8, !tbaa !176
  %16 = load i64, ptr %5, align 8, !tbaa !7
  %17 = call i32 @hash_stlike_lookup(i64 noundef %15, i64 noundef %16, ptr noundef %9)
  %18 = icmp ne i32 %17, 0
  br i1 %18, label %22, label %19

19:                                               ; preds = %3
  %20 = load ptr, ptr %8, align 8, !tbaa !179
  %21 = getelementptr inbounds nuw %struct.equal_data, ptr %20, i32 0, i32 0
  store i64 0, ptr %21, align 8, !tbaa !181
  store i32 1, ptr %4, align 4
  store i32 1, ptr %10, align 4
  br label %42

22:                                               ; preds = %3
  %23 = load ptr, ptr %8, align 8, !tbaa !179
  %24 = getelementptr inbounds nuw %struct.equal_data, ptr %23, i32 0, i32 2
  %25 = load i32, ptr %24, align 8, !tbaa !178
  %26 = icmp ne i32 %25, 0
  br i1 %26, label %27, label %32

27:                                               ; preds = %22
  %28 = load i64, ptr %6, align 8, !tbaa !7
  %29 = load i64, ptr %9, align 8, !tbaa !7
  %30 = call i32 @rb_eql(i64 noundef %28, i64 noundef %29)
  %31 = icmp ne i32 %30, 0
  br i1 %31, label %41, label %38

32:                                               ; preds = %22
  %33 = load i64, ptr %6, align 8, !tbaa !7
  %34 = load i64, ptr %9, align 8, !tbaa !7
  %35 = call i64 @rb_equal(i64 noundef %33, i64 noundef %34)
  %36 = trunc i64 %35 to i32
  %37 = icmp ne i32 %36, 0
  br i1 %37, label %41, label %38

38:                                               ; preds = %32, %27
  %39 = load ptr, ptr %8, align 8, !tbaa !179
  %40 = getelementptr inbounds nuw %struct.equal_data, ptr %39, i32 0, i32 0
  store i64 0, ptr %40, align 8, !tbaa !181
  store i32 1, ptr %4, align 4
  store i32 1, ptr %10, align 4
  br label %42

41:                                               ; preds = %32, %27
  store i32 0, ptr %4, align 4
  store i32 1, ptr %10, align 4
  br label %42

42:                                               ; preds = %41, %38, %19
  call void @llvm.lifetime.end.p0(i64 8, ptr %9) #28
  call void @llvm.lifetime.end.p0(i64 8, ptr %8) #28
  %43 = load i32, ptr %4, align 4
  ret i32 %43
}