; Function Attrs: nounwind sspstrong uwtable
define internal range(i32 0, 2) i32 @eql_i(i64 noundef %0, i64 noundef %1, i64 noundef %2) #0 {
  %4 = alloca i64, align 8
  %5 = inttoptr i64 %2 to ptr
  call void @llvm.lifetime.start.p0(i64 8, ptr nonnull %4) #28
  %6 = getelementptr inbounds nuw i8, ptr %5, i64 8
  %7 = load i64, ptr %6, align 8, !tbaa !162
  %8 = inttoptr i64 %7 to ptr
  %9 = load i64, ptr %8, align 8, !tbaa !11
  %10 = and i64 %9, 32768
  %.not.i.i = icmp eq i64 %10, 0
  br i1 %.not.i.i, label %11, label %hash_stlike_lookup.exit

11:                                               ; preds = %3
  %12 = and i64 %9, 983040
  %13 = icmp eq i64 %12, 0
  br i1 %13, label %.sink.split, label %14

14:                                               ; preds = %11
  %15 = tail call fastcc range(i64 -4611686018427387904, 4611686018427387904) i64 @any_hash(i64 noundef %0, ptr noundef nonnull @obj_any_hash)
  %16 = load i64, ptr %8, align 8, !tbaa !11
  %17 = and i64 %16, 32768
  %.not.i.i.i = icmp eq i64 %17, 0
  br i1 %.not.i.i.i, label %18, label %hash_stlike_lookup.exit, !prof !59

18:                                               ; preds = %14
  %19 = trunc i64 %15 to i8
  %20 = trunc i64 %16 to i32
  %21 = lshr i32 %20, 20
  %22 = and i32 %21, 15
  %23 = add i64 %7, 24
  %24 = inttoptr i64 %23 to ptr
  %25 = getelementptr inbounds nuw i8, ptr %24, i64 8
  %.not19.i.i.i.i = icmp eq i32 %22, 0
  br i1 %.not19.i.i.i.i, label %.sink.split, label %.lr.ph.preheader.i.i.i.i

.lr.ph.preheader.i.i.i.i:                         ; preds = %18
  %wide.trip.count.i.i.i.i = zext nneg i32 %22 to i64
  br label %.lr.ph.i.i.i.i

.lr.ph.i.i.i.i:                                   ; preds = %33, %.lr.ph.preheader.i.i.i.i
  %indvars.iv.i.i.i.i = phi i64 [ 0, %.lr.ph.preheader.i.i.i.i ], [ %indvars.iv.next.i.i.i.i, %33 ]
  %26 = getelementptr i8, ptr %24, i64 %indvars.iv.i.i.i.i
  %27 = load i8, ptr %26, align 1, !tbaa !22
  %28 = icmp eq i8 %27, %19
  br i1 %28, label %29, label %33

29:                                               ; preds = %.lr.ph.i.i.i.i
  %30 = getelementptr [8 x %struct.ar_table_pair_struct], ptr %25, i64 0, i64 %indvars.iv.i.i.i.i
  %31 = load i64, ptr %30, align 8, !tbaa !45
  %32 = tail call fastcc i32 @ar_equal(i64 noundef %0, i64 noundef %31)
  %.not.i.i.i.i = icmp eq i32 %32, 0
  br i1 %.not.i.i.i.i, label %33, label %ar_find_entry.exit.i.i

33:                                               ; preds = %29, %.lr.ph.i.i.i.i
  %indvars.iv.next.i.i.i.i = add nuw nsw i64 %indvars.iv.i.i.i.i, 1
  %exitcond.not.i.i.i.i = icmp eq i64 %indvars.iv.next.i.i.i.i, %wide.trip.count.i.i.i.i
  br i1 %exitcond.not.i.i.i.i, label %.sink.split, label %.lr.ph.i.i.i.i, !llvm.loop !54

ar_find_entry.exit.i.i:                           ; preds = %29
  %34 = icmp eq i64 %indvars.iv.i.i.i.i, 8
  br i1 %34, label %.sink.split, label %hash_stlike_lookup.exit.thread13

hash_stlike_lookup.exit.thread13:                 ; preds = %ar_find_entry.exit.i.i
  %35 = shl i64 %indvars.iv.i.i.i.i, 4
  %.idx.i.i = and i64 %35, 68719476720
  %36 = getelementptr i8, ptr %24, i64 16
  %37 = getelementptr i8, ptr %36, i64 %.idx.i.i
  %38 = load i64, ptr %37, align 8, !tbaa !47
  store i64 %38, ptr %4, align 8, !tbaa !7
  br label %42

hash_stlike_lookup.exit:                          ; preds = %3, %14
  %39 = add i64 %7, 24
  %40 = inttoptr i64 %39 to ptr
  %41 = call i32 @rb_st_lookup(ptr noundef nonnull %40, i64 noundef %0, ptr noundef nonnull %4) #28
  %.not = icmp eq i32 %41, 0
  br i1 %.not, label %.sink.split, label %42

42:                                               ; preds = %hash_stlike_lookup.exit.thread13, %hash_stlike_lookup.exit
  %43 = getelementptr inbounds nuw i8, ptr %5, i64 16
  %44 = load i32, ptr %43, align 8, !tbaa !164
  %.not8 = icmp eq i32 %44, 0
  %45 = load i64, ptr %4, align 8, !tbaa !7
  br i1 %.not8, label %48, label %46

46:                                               ; preds = %42
  %47 = call i32 @rb_eql(i64 noundef %1, i64 noundef %45) #28
  %.not10 = icmp eq i32 %47, 0
  br i1 %.not10, label %.sink.split, label %51

48:                                               ; preds = %42
  %49 = call i64 @rb_equal(i64 noundef %1, i64 noundef %45) #28
  %50 = and i64 %49, 4294967295
  %.not9 = icmp eq i64 %50, 0
  br i1 %.not9, label %.sink.split, label %51

.sink.split:                                      ; preds = %33, %46, %48, %hash_stlike_lookup.exit, %11, %ar_find_entry.exit.i.i, %18
  store i64 0, ptr %5, align 8, !tbaa !165
  br label %51

51:                                               ; preds = %.sink.split, %46, %48
  %.0 = phi i32 [ 0, %48 ], [ 0, %46 ], [ 1, %.sink.split ]
  call void @llvm.lifetime.end.p0(i64 8, ptr nonnull %4) #28
  ret i32 %.0
}